target datalayout = "e-m:e-p270:32:32-p271:32:32-p272:64:64-i64:64-i128:128-f80:128-n8:16:32:64-S128"
target triple = "x86_64-pc-linux-gnu"

%"struct.std::__1::atomic" = type { %"struct.std::__1::__atomic_base" }
%"struct.std::__1::__atomic_base" = type { %"struct.std::__1::__atomic_base.0" }
%"struct.std::__1::__atomic_base.0" = type { %"struct.std::__1::__cxx_atomic_impl" }
%"struct.std::__1::__cxx_atomic_impl" = type { %"struct.std::__1::__cxx_atomic_base_impl" }
%"struct.std::__1::__cxx_atomic_base_impl" = type { i32 }
%"class.mitsuba::Object" = type <{ ptr, %"struct.std::__1::atomic", [4 x i8] }>
%"class.mitsuba::ref.18" = type { ptr }

; Function Attrs: mustprogress nounwind uwtable
define linkonce_odr hidden noundef i32 @_ZNSt3__122__cxx_atomic_fetch_addB8ne190000IiEET_PNS_22__cxx_atomic_base_implIS1_EES1_NS_12memory_orderE(ptr noundef %0, i32 noundef %1, i32 noundef %2) #1 comdat {
  %4 = alloca ptr, align 8
  %5 = alloca i32, align 4
  %6 = alloca i32, align 4
  %7 = alloca i32, align 4
  %8 = alloca i32, align 4
  store ptr %0, ptr %4, align 8
  store i32 %1, ptr %5, align 4
  store i32 %2, ptr %6, align 4
  %9 = load ptr, ptr %4, align 8
  %10 = getelementptr inbounds %"struct.std::__1::__cxx_atomic_base_impl", ptr %9, i32 0, i32 0
  %11 = load i32, ptr %6, align 4
  %12 = load i32, ptr %5, align 4
  store i32 %12, ptr %7, align 4
  switch i32 %11, label %13 [
    i32 1, label %16
    i32 2, label %16
    i32 3, label %19
    i32 4, label %22
    i32 5, label %25
  ]

13:                                               ; preds = %3
  %14 = load i32, ptr %7, align 4
  %15 = atomicrmw add ptr %10, i32 %14 monotonic, align 4
  store i32 %15, ptr %8, align 4
  br label %28

16:                                               ; preds = %3, %3
  %17 = load i32, ptr %7, align 4
  %18 = atomicrmw add ptr %10, i32 %17 acquire, align 4
  store i32 %18, ptr %8, align 4
  br label %28

19:                                               ; preds = %3
  %20 = load i32, ptr %7, align 4
  %21 = atomicrmw add ptr %10, i32 %20 release, align 4
  store i32 %21, ptr %8, align 4
  br label %28

22:                                               ; preds = %3
  %23 = load i32, ptr %7, align 4
  %24 = atomicrmw add ptr %10, i32 %23 acq_rel, align 4
  store i32 %24, ptr %8, align 4
  br label %28

25:                                               ; preds = %3
  %26 = load i32, ptr %7, align 4
  %27 = atomicrmw add ptr %10, i32 %26 seq_cst, align 4
  store i32 %27, ptr %8, align 4
  br label %28

28:                                               ; preds = %25, %22, %19, %16, %13
  %29 = load i32, ptr %8, align 4
  ret i32 %29
}

; Function Attrs: mustprogress nounwind uwtable
define linkonce_odr hidden noundef i32 @_ZNSt3__113__atomic_baseIiLb1EE9fetch_addB8ne190000EiNS_12memory_orderE(ptr noundef nonnull align 4 dereferenceable(4) %0, i32 noundef %1, i32 noundef %2) #1 comdat align 2 {
  %4 = alloca ptr, align 8
  %5 = alloca i32, align 4
  %6 = alloca i32, align 4
  store ptr %0, ptr %4, align 8
  store i32 %1, ptr %5, align 4
  store i32 %2, ptr %6, align 4
  %7 = load ptr, ptr %4, align 8
  %8 = getelementptr inbounds %"struct.std::__1::__atomic_base.0", ptr %7, i32 0, i32 0
  %9 = load i32, ptr %5, align 4
  %10 = load i32, ptr %6, align 4
  %11 = call noundef i32 @_ZNSt3__122__cxx_atomic_fetch_addB8ne190000IiEET_PNS_22__cxx_atomic_base_implIS1_EES1_NS_12memory_orderE(ptr noundef %8, i32 noundef %9, i32 noundef %10) #29
  ret i32 %11
}

; Function Attrs: mustprogress nounwind uwtable
define linkonce_odr hidden noundef i32 @_ZNSt3__113__atomic_baseIiLb1EEppB8ne190000Ev(ptr noundef nonnull align 4 dereferenceable(4) %0) #1 comdat align 2 {
  %2 = alloca ptr, align 8
  store ptr %0, ptr %2, align 8
  %3 = load ptr, ptr %2, align 8
  %4 = call noundef i32 @_ZNSt3__113__atomic_baseIiLb1EE9fetch_addB8ne190000EiNS_12memory_orderE(ptr noundef nonnull align 4 dereferenceable(4) %3, i32 noundef 1, i32 noundef 5) #29
  %5 = add nsw i32 %4, 1
  ret i32 %5
}

; Function Attrs: mustprogress nounwind uwtable
define linkonce_odr void @_ZNK7mitsuba6Object7inc_refEv(ptr noundef nonnull align 8 dereferenceable(12) %0) #1 comdat align 2 {
  %2 = alloca ptr, align 8
  store ptr %0, ptr %2, align 8
  %3 = load ptr, ptr %2, align 8
  %4 = getelementptr inbounds %"class.mitsuba::Object", ptr %3, i32 0, i32 1
  %5 = call noundef i32 @_ZNSt3__113__atomic_baseIiLb1EEppB8ne190000Ev(ptr noundef nonnull align 4 dereferenceable(4) %4) #29
  ret void
}

; Function Attrs: mustprogress nounwind uwtable
define linkonce_odr hidden void @_ZN7mitsuba3refINS_10FileStreamEED2Ev(ptr noundef nonnull align 8 dereferenceable(8) %0) unnamed_addr #1 comdat align 2 {
  %2 = alloca ptr, align 8
  store ptr %0, ptr %2, align 8
  %3 = load ptr, ptr %2, align 8
  %4 = getelementptr inbounds %"class.mitsuba::ref.18", ptr %3, i32 0, i32 0
  %5 = load ptr, ptr %4, align 8
  %6 = icmp ne ptr %5, null
  br i1 %6, label %7, label %10

7:                                                ; preds = %1
  %8 = getelementptr inbounds %"class.mitsuba::ref.18", ptr %3, i32 0, i32 0
  %9 = load ptr, ptr %8, align 8
  call void @_ZNK7mitsuba6Object7dec_refEb(ptr noundef nonnull align 8 dereferenceable(12) %9, i1 noundef zeroext true) #29
  br label %10

10:                                               ; preds = %7, %1
  ret void
}

; Function Attrs: mustprogress nounwind uwtable
define linkonce_odr hidden noundef ptr @_ZN7mitsuba3refINS_10FileStreamEEcvPS1_Ev(ptr noundef nonnull align 8 dereferenceable(8) %0) #1 comdat align 2 {
  %2 = alloca ptr, align 8
  store ptr %0, ptr %2, align 8
  %3 = load ptr, ptr %2, align 8
  %4 = getelementptr inbounds %"class.mitsuba::ref.18", ptr %3, i32 0, i32 0
  %5 = load ptr, ptr %4, align 8
  ret ptr %5
}

; Function Attrs: mustprogress nounwind uwtable
define linkonce_odr hidden void @_ZN7mitsuba3refINS_10FileStreamEEC2IS1_EEPS1_(ptr noundef nonnull align 8 dereferenceable(8) %0, ptr noundef %1) unnamed_addr #1 comdat align 2 {
  %3 = alloca ptr, align 8
  %4 = alloca ptr, align 8
  store ptr %0, ptr %3, align 8
  store ptr %1, ptr %4, align 8
  %5 = load ptr, ptr %3, align 8
  %6 = getelementptr inbounds %"class.mitsuba::ref.18", ptr %5, i32 0, i32 0
  %7 = load ptr, ptr %4, align 8
  store ptr %7, ptr %6, align 8
  %8 = getelementptr inbounds %"class.mitsuba::ref.18", ptr %5, i32 0, i32 0
  %9 = load ptr, ptr %8, align 8
  %10 = icmp ne ptr %9, null
  br i1 %10, label %11, label %14

11:                                               ; preds = %2
  %12 = getelementptr inbounds %"class.mitsuba::ref.18", ptr %5, i32 0, i32 0
  %13 = load ptr, ptr %12, align 8
  call void @_ZNK7mitsuba6Object7inc_refEv(ptr noundef nonnull align 8 dereferenceable(12) %13)
  br label %14

14:                                               ; preds = %11, %2
  ret void
}

; Function Attrs: mustprogress uwtable
define void @_ZNK7mitsuba6Bitmap5writeERKNS_10filesystem4pathENS0_10FileFormatEi(ptr noundef nonnull align 8 dereferenceable(64) %0, ptr noundef nonnull align 8 dereferenceable(25) %1, i32 noundef %2, i32 noundef %3) #0 align 2 personality ptr @__gxx_personality_v0 {
  %5 = alloca ptr, align 8
  %6 = alloca ptr, align 8
  %7 = alloca i32, align 4
  %8 = alloca i32, align 4
  %9 = alloca %"class.mitsuba::ref.18", align 8
  %10 = alloca ptr, align 8
  %11 = alloca i32, align 4
  store ptr %0, ptr %5, align 8
  store ptr %1, ptr %6, align 8
  store i32 %2, ptr %7, align 4
  store i32 %3, ptr %8, align 4
  %12 = load ptr, ptr %5, align 8
  %13 = call noalias noundef nonnull ptr @_Znwm(i64 noundef 64) #30
  %14 = load ptr, ptr %6, align 8
  invoke void @_ZN7mitsuba10FileStreamC1ERKNS_10filesystem4pathENS0_5EModeE(ptr noundef nonnull align 8 dereferenceable(64) %13, ptr noundef nonnull align 8 dereferenceable(25) %14, i32 noundef 2)
          to label %15 unwind label %21

15:                                               ; preds = %4
  call void @_ZN7mitsuba3refINS_10FileStreamEEC2IS1_EEPS1_(ptr noundef nonnull align 8 dereferenceable(8) %9, ptr noundef %13)
  %16 = invoke noundef ptr @_ZN7mitsuba3refINS_10FileStreamEEcvPS1_Ev(ptr noundef nonnull align 8 dereferenceable(8) %9)
          to label %17 unwind label %25

17:                                               ; preds = %15
  %18 = load i32, ptr %7, align 4
  %19 = load i32, ptr %8, align 4
  invoke void @_ZNK7mitsuba6Bitmap5writeEPNS_6StreamENS0_10FileFormatEi(ptr noundef nonnull align 8 dereferenceable(64) %12, ptr noundef %16, i32 noundef %18, i32 noundef %19)
          to label %20 unwind label %25

20:                                               ; preds = %17
  call void @_ZN7mitsuba3refINS_10FileStreamEED2Ev(ptr noundef nonnull align 8 dereferenceable(8) %9) #29
  ret void

21:                                               ; preds = %4
  %22 = landingpad { ptr, i32 }
          cleanup
  %23 = extractvalue { ptr, i32 } %22, 0
  store ptr %23, ptr %10, align 8
  %24 = extractvalue { ptr, i32 } %22, 1
  store i32 %24, ptr %11, align 4
  call void @_ZdlPv(ptr noundef %13) #33
  br label %29

25:                                               ; preds = %17, %15
  %26 = landingpad { ptr, i32 }
          cleanup
  %27 = extractvalue { ptr, i32 } %26, 0
  store ptr %27, ptr %10, align 8
  %28 = extractvalue { ptr, i32 } %26, 1
  store i32 %28, ptr %11, align 4
  call void @_ZN7mitsuba3refINS_10FileStreamEED2Ev(ptr noundef nonnull align 8 dereferenceable(8) %9) #29
  br label %29

29:                                               ; preds = %25, %21
  %30 = load ptr, ptr %10, align 8
  %31 = load i32, ptr %11, align 4
  %32 = insertvalue { ptr, i32 } poison, ptr %30, 0
  %33 = insertvalue { ptr, i32 } %32, i32 %31, 1
  resume { ptr, i32 } %33
}