; Function Attrs: mustprogress uwtable
define void @_ZNK7mitsuba6Bitmap5writeERKNS_10filesystem4pathENS0_10FileFormatEi(ptr noundef nonnull align 8 dereferenceable(64) %0, ptr noundef nonnull align 8 dereferenceable(25) %1, i32 noundef %2, i32 noundef %3) local_unnamed_addr #0 align 2 personality ptr @__gxx_personality_v0 {
  %5 = tail call noalias noundef nonnull dereferenceable(64) ptr @_Znwm(i64 noundef 64) #34
  invoke void @_ZN7mitsuba10FileStreamC1ERKNS_10filesystem4pathENS0_5EModeE(ptr noundef nonnull align 8 dereferenceable(64) %5, ptr noundef nonnull align 8 dereferenceable(25) %1, i32 noundef 2)
          to label %6 unwind label %9

6:                                                ; preds = %4
  %7 = getelementptr inbounds i8, ptr %5, i64 8
  %8 = atomicrmw add ptr %7, i32 1 seq_cst, align 4
  invoke void @_ZNK7mitsuba6Bitmap5writeEPNS_6StreamENS0_10FileFormatEi(ptr noundef nonnull align 8 dereferenceable(64) %0, ptr noundef nonnull %5, i32 noundef %2, i32 noundef %3)
          to label %_ZN7mitsuba3refINS_10FileStreamEED2Ev.exit unwind label %_ZN7mitsuba3refINS_10FileStreamEED2Ev.exit8

_ZN7mitsuba3refINS_10FileStreamEED2Ev.exit:       ; preds = %6
  tail call void @_ZNK7mitsuba6Object7dec_refEb(ptr noundef nonnull align 8 dereferenceable(12) %5, i1 noundef zeroext true) #36
  ret void

9:                                                ; preds = %4
  %10 = landingpad { ptr, i32 }
          cleanup
  tail call void @_ZdlPv(ptr noundef nonnull %5) #35
  br label %12

_ZN7mitsuba3refINS_10FileStreamEED2Ev.exit8:      ; preds = %6
  %11 = landingpad { ptr, i32 }
          cleanup
  tail call void @_ZNK7mitsuba6Object7dec_refEb(ptr noundef nonnull align 8 dereferenceable(12) %5, i1 noundef zeroext true) #36
  br label %12

12:                                               ; preds = %_ZN7mitsuba3refINS_10FileStreamEED2Ev.exit8, %9
  %.pn = phi { ptr, i32 } [ %11, %_ZN7mitsuba3refINS_10FileStreamEED2Ev.exit8 ], [ %10, %9 ]
  resume { ptr, i32 } %.pn
}